((dp0
S'topic9'
p1
I0
sS'topic8'
p2
I1
sS'topic1'
p3
I2
sS'topic3'
p4
I3
sS'topic2'
p5
I11
sS'topic5'
p6
I4
sS'topic4'
p7
I5
sS'topic7'
p8
I6
sS'topic6'
p9
I7
sS'topic11'
p10
I8
sS'topic10'
p11
I9
sS'topic12'
p12
I10
s(dp13
I0
g1
sI1
g2
sI2
g3
sI3
g4
sI4
g6
sI5
g7
sI6
g8
sI7
g9
sI8
g10
sI9
g11
sI10
g12
sI11
g5
stp14
.